target datalayout = "e-m:e-p270:32:32-p271:32:32-p272:64:64-i64:64-i128:128-f80:128-n8:16:32:64-S128"
target triple = "x86_64-pc-linux-gnu"

%struct.afalg_ctx_st = type { i32, i32, i32, %struct.afalg_aio_st }
%struct.afalg_aio_st = type { i32, i32, i64, [1 x %struct.io_event], [1 x %struct.iocb] }
%struct.io_event = type { i64, i64, i64, i64 }
%struct.iocb = type { i64, i32, i32, i16, i16, i32, i64, i64, i64, i64, i32, i32 }

; Function Attrs: inlinehint nounwind uwtable
define internal i32 @io_destroy(i64 noundef %0) #7 {
  %2 = alloca i64, align 8
  store i64 %0, ptr %2, align 8, !tbaa !3
  %3 = load i64, ptr %2, align 8, !tbaa !3
  %4 = call i64 (i64, ...) @syscall(i64 noundef 207, i64 noundef %3) #11
  %5 = trunc i64 %4 to i32
  ret i32 %5
}

; Function Attrs: nounwind uwtable
define internal i32 @afalg_cipher_cleanup(ptr noundef %0) #0 {
  %2 = alloca i32, align 4
  %3 = alloca ptr, align 8
  %4 = alloca ptr, align 8
  %5 = alloca i32, align 4
  store ptr %0, ptr %3, align 8, !tbaa !42
  call void @llvm.lifetime.start.p0(i64 8, ptr %4) #11
  %6 = load ptr, ptr %3, align 8, !tbaa !42
  %7 = icmp eq ptr %6, null
  br i1 %7, label %8, label %9

8:                                                ; preds = %1
  store i32 0, ptr %2, align 4
  store i32 1, ptr %5, align 4
  br label %46

9:                                                ; preds = %1
  %10 = load ptr, ptr %3, align 8, !tbaa !42
  %11 = call ptr @EVP_CIPHER_CTX_get_cipher_data(ptr noundef %10)
  store ptr %11, ptr %4, align 8, !tbaa !44
  %12 = load ptr, ptr %4, align 8, !tbaa !44
  %13 = icmp eq ptr %12, null
  br i1 %13, label %19, label %14

14:                                               ; preds = %9
  %15 = load ptr, ptr %4, align 8, !tbaa !44
  %16 = getelementptr inbounds nuw %struct.afalg_ctx_st, ptr %15, i32 0, i32 0
  %17 = load i32, ptr %16, align 8, !tbaa !46
  %18 = icmp ne i32 %17, 25757297
  br i1 %18, label %19, label %20

19:                                               ; preds = %14, %9
  store i32 1, ptr %2, align 4
  store i32 1, ptr %5, align 4
  br label %46

20:                                               ; preds = %14
  %21 = load ptr, ptr %4, align 8, !tbaa !44
  %22 = getelementptr inbounds nuw %struct.afalg_ctx_st, ptr %21, i32 0, i32 1
  %23 = load i32, ptr %22, align 4, !tbaa !49
  %24 = call i32 @close(i32 noundef %23)
  %25 = load ptr, ptr %4, align 8, !tbaa !44
  %26 = getelementptr inbounds nuw %struct.afalg_ctx_st, ptr %25, i32 0, i32 2
  %27 = load i32, ptr %26, align 8, !tbaa !50
  %28 = call i32 @close(i32 noundef %27)
  %29 = load ptr, ptr %4, align 8, !tbaa !44
  %30 = getelementptr inbounds nuw %struct.afalg_ctx_st, ptr %29, i32 0, i32 3
  %31 = getelementptr inbounds nuw %struct.afalg_aio_st, ptr %30, i32 0, i32 1
  %32 = load i32, ptr %31, align 4, !tbaa !51
  %33 = icmp eq i32 %32, 1
  br i1 %33, label %34, label %40

34:                                               ; preds = %20
  %35 = load ptr, ptr %4, align 8, !tbaa !44
  %36 = getelementptr inbounds nuw %struct.afalg_ctx_st, ptr %35, i32 0, i32 3
  %37 = getelementptr inbounds nuw %struct.afalg_aio_st, ptr %36, i32 0, i32 0
  %38 = load i32, ptr %37, align 8, !tbaa !52
  %39 = call i32 @close(i32 noundef %38)
  br label %40

40:                                               ; preds = %34, %20
  %41 = load ptr, ptr %4, align 8, !tbaa !44
  %42 = getelementptr inbounds nuw %struct.afalg_ctx_st, ptr %41, i32 0, i32 3
  %43 = getelementptr inbounds nuw %struct.afalg_aio_st, ptr %42, i32 0, i32 2
  %44 = load i64, ptr %43, align 8, !tbaa !53
  %45 = call i32 @io_destroy(i64 noundef %44)
  store i32 1, ptr %2, align 4
  store i32 1, ptr %5, align 4
  br label %46

46:                                               ; preds = %40, %19, %8
  call void @llvm.lifetime.end.p0(i64 8, ptr %4) #11
  %47 = load i32, ptr %2, align 4
  ret i32 %47
}