; Function Attrs: nounwind uwtable
define internal range(i32 0, 2) i32 @afalg_cipher_cleanup(ptr noundef %0) #1 {
  %2 = icmp eq ptr %0, null
  br i1 %2, label %26, label %3

3:                                                ; preds = %1
  %4 = tail call ptr @EVP_CIPHER_CTX_get_cipher_data(ptr noundef nonnull %0) #13
  %5 = icmp eq ptr %4, null
  br i1 %5, label %26, label %6

6:                                                ; preds = %3
  %7 = load i32, ptr %4, align 8, !tbaa !35
  %.not = icmp eq i32 %7, 25757297
  br i1 %.not, label %8, label %26

8:                                                ; preds = %6
  %9 = getelementptr inbounds nuw i8, ptr %4, i64 4
  %10 = load i32, ptr %9, align 4, !tbaa !27
  %11 = tail call i32 @close(i32 noundef %10) #13
  %12 = getelementptr inbounds nuw i8, ptr %4, i64 8
  %13 = load i32, ptr %12, align 8, !tbaa !31
  %14 = tail call i32 @close(i32 noundef %13) #13
  %15 = getelementptr inbounds nuw i8, ptr %4, i64 20
  %16 = load i32, ptr %15, align 4, !tbaa !66
  %17 = icmp eq i32 %16, 1
  br i1 %17, label %18, label %22

18:                                               ; preds = %8
  %19 = getelementptr inbounds nuw i8, ptr %4, i64 16
  %20 = load i32, ptr %19, align 8, !tbaa !67
  %21 = tail call i32 @close(i32 noundef %20) #13
  br label %22

22:                                               ; preds = %18, %8
  %23 = getelementptr inbounds nuw i8, ptr %4, i64 24
  %24 = load i64, ptr %23, align 8, !tbaa !68
  %25 = tail call i64 (i64, ...) @syscall(i64 noundef 207, i64 noundef %24) #13
  br label %26

26:                                               ; preds = %3, %6, %1, %22
  %.0 = phi i32 [ 1, %22 ], [ 0, %1 ], [ 1, %6 ], [ 1, %3 ]
  ret i32 %.0
}